0000000000001000 <_init>:
    1000: f3 0f 1e fa                   endbr64
    1004: 48 83 ec 08                   subq    $0x8, %rsp
    1008: 48 8b 05 d9 2f 00 00          movq    0x2fd9(%rip), %rax      # 0x3fe8 <_GLOBAL_OFFSET_TABLE_+0x58>
    100f: 48 85 c0                      testq   %rax, %rax
    1012: 74 02                         je      0x1016 <_init+0x16>
    1014: ff d0                         callq   *%rax
    1016: 48 83 c4 08                   addq    $0x8, %rsp
    101a: c3                            retq

Disassembly of section .plt:

0000000000001020 <.plt>:
    1020: ff 35 72 2f 00 00             pushq   0x2f72(%rip)            # 0x3f98 <_GLOBAL_OFFSET_TABLE_+0x8>
    1026: ff 25 74 2f 00 00             jmpq    *0x2f74(%rip)           # 0x3fa0 <_GLOBAL_OFFSET_TABLE_+0x10>
    102c: 0f 1f 40 00                   nopl    (%rax)
    1030: f3 0f 1e fa                   endbr64
    1034: 68 00 00 00 00                pushq   $0x0
    1039: e9 e2 ff ff ff                jmp     0x1020 <.plt>
    103e: 66 90                         nop
    1040: f3 0f 1e fa                   endbr64
    1044: 68 01 00 00 00                pushq   $0x1
    1049: e9 d2 ff ff ff                jmp     0x1020 <.plt>
    104e: 66 90                         nop
    1050: f3 0f 1e fa                   endbr64
    1054: 68 02 00 00 00                pushq   $0x2
    1059: e9 c2 ff ff ff                jmp     0x1020 <.plt>
    105e: 66 90                         nop
    1060: f3 0f 1e fa                   endbr64
    1064: 68 03 00 00 00                pushq   $0x3
    1069: e9 b2 ff ff ff                jmp     0x1020 <.plt>
    106e: 66 90                         nop
    1070: f3 0f 1e fa                   endbr64
    1074: 68 04 00 00 00                pushq   $0x4
    1079: e9 a2 ff ff ff                jmp     0x1020 <.plt>
    107e: 66 90                         nop
    1080: f3 0f 1e fa                   endbr64
    1084: 68 05 00 00 00                pushq   $0x5
    1089: e9 92 ff ff ff                jmp     0x1020 <.plt>
    108e: 66 90                         nop

Disassembly of section .plt.got:

0000000000001090 <.plt.got>:
    1090: f3 0f 1e fa                   endbr64

0000000000001094 <__cxa_finalize@plt>:
    1094: ff 25 5e 2f 00 00             jmpq    *0x2f5e(%rip)           # 0x3ff8 <_GLOBAL_OFFSET_TABLE_+0x68>
    109a: 66 0f 1f 44 00 00             nopw    (%rax,%rax)

Disassembly of section .plt.sec:

00000000000010a0 <.plt.sec>:
    10a0: f3 0f 1e fa                   endbr64
    10a4: ff 25 fe 2e 00 00             jmpq    *0x2efe(%rip)           # 0x3fa8 <_GLOBAL_OFFSET_TABLE_+0x18>
    10aa: 66 0f 1f 44 00 00             nopw    (%rax,%rax)
    10b0: f3 0f 1e fa                   endbr64
    10b4: ff 25 f6 2e 00 00             jmpq    *0x2ef6(%rip)           # 0x3fb0 <_GLOBAL_OFFSET_TABLE_+0x20>
    10ba: 66 0f 1f 44 00 00             nopw    (%rax,%rax)
    10c0: f3 0f 1e fa                   endbr64
    10c4: ff 25 ee 2e 00 00             jmpq    *0x2eee(%rip)           # 0x3fb8 <_GLOBAL_OFFSET_TABLE_+0x28>
    10ca: 66 0f 1f 44 00 00             nopw    (%rax,%rax)
    10d0: f3 0f 1e fa                   endbr64
    10d4: ff 25 e6 2e 00 00             jmpq    *0x2ee6(%rip)           # 0x3fc0 <_GLOBAL_OFFSET_TABLE_+0x30>
    10da: 66 0f 1f 44 00 00             nopw    (%rax,%rax)
    10e0: f3 0f 1e fa                   endbr64
    10e4: ff 25 de 2e 00 00             jmpq    *0x2ede(%rip)           # 0x3fc8 <_GLOBAL_OFFSET_TABLE_+0x38>
    10ea: 66 0f 1f 44 00 00             nopw    (%rax,%rax)
    10f0: f3 0f 1e fa                   endbr64
    10f4: ff 25 d6 2e 00 00             jmpq    *0x2ed6(%rip)           # 0x3fd0 <_GLOBAL_OFFSET_TABLE_+0x40>
    10fa: 66 0f 1f 44 00 00             nopw    (%rax,%rax)

Disassembly of section .text:

0000000000001100 <_start>:
    1100: f3 0f 1e fa                   endbr64
    1104: 31 ed                         xorl    %ebp, %ebp
    1106: 49 89 d1                      movq    %rdx, %r9
    1109: 5e                            popq    %rsi
    110a: 48 89 e2                      movq    %rsp, %rdx
    110d: 48 83 e4 f0                   andq    $-0x10, %rsp
    1111: 50                            pushq   %rax
    1112: 54                            pushq   %rsp
    1113: 45 31 c0                      xorl    %r8d, %r8d
    1116: 31 c9                         xorl    %ecx, %ecx
    1118: 48 8d 3d ca 00 00 00          leaq    0xca(%rip), %rdi        # 0x11e9 <main>
    111f: ff 15 b3 2e 00 00             callq   *0x2eb3(%rip)           # 0x3fd8 <_GLOBAL_OFFSET_TABLE_+0x48>
    1125: f4                            hlt
    1126: 66 2e 0f 1f 84 00 00 00 00 00 nopw    %cs:(%rax,%rax)

0000000000001130 <deregister_tm_clones>:
    1130: 48 8d 3d d9 2e 00 00          leaq    0x2ed9(%rip), %rdi      # 0x4010 <stdout@GLIBC_2.2.5>
    1137: 48 8d 05 d2 2e 00 00          leaq    0x2ed2(%rip), %rax      # 0x4010 <stdout@GLIBC_2.2.5>
    113e: 48 39 f8                      cmpq    %rdi, %rax
    1141: 74 15                         je      0x1158 <deregister_tm_clones+0x28>
    1143: 48 8b 05 96 2e 00 00          movq    0x2e96(%rip), %rax      # 0x3fe0 <_GLOBAL_OFFSET_TABLE_+0x50>
    114a: 48 85 c0                      testq   %rax, %rax
    114d: 74 09                         je      0x1158 <deregister_tm_clones+0x28>
    114f: ff e0                         jmpq    *%rax
    1151: 0f 1f 80 00 00 00 00          nopl    (%rax)
    1158: c3                            retq
    1159: 0f 1f 80 00 00 00 00          nopl    (%rax)

0000000000001160 <register_tm_clones>:
    1160: 48 8d 3d a9 2e 00 00          leaq    0x2ea9(%rip), %rdi      # 0x4010 <stdout@GLIBC_2.2.5>
    1167: 48 8d 35 a2 2e 00 00          leaq    0x2ea2(%rip), %rsi      # 0x4010 <stdout@GLIBC_2.2.5>
    116e: 48 29 fe                      subq    %rdi, %rsi
    1171: 48 89 f0                      movq    %rsi, %rax
    1174: 48 c1 ee 3f                   shrq    $0x3f, %rsi
    1178: 48 c1 f8 03                   sarq    $0x3, %rax
    117c: 48 01 c6                      addq    %rax, %rsi
    117f: 48 d1 fe                      sarq    %rsi
    1182: 74 14                         je      0x1198 <register_tm_clones+0x38>
    1184: 48 8b 05 65 2e 00 00          movq    0x2e65(%rip), %rax      # 0x3ff0 <_GLOBAL_OFFSET_TABLE_+0x60>
    118b: 48 85 c0                      testq   %rax, %rax
    118e: 74 08                         je      0x1198 <register_tm_clones+0x38>
    1190: ff e0                         jmpq    *%rax
    1192: 66 0f 1f 44 00 00             nopw    (%rax,%rax)
    1198: c3                            retq
    1199: 0f 1f 80 00 00 00 00          nopl    (%rax)

00000000000011a0 <__do_global_dtors_aux>:
    11a0: f3 0f 1e fa                   endbr64
    11a4: 80 3d 6d 2e 00 00 00          cmpb    $0x0, 0x2e6d(%rip)      # 0x4018 <completed.0>
    11ab: 75 2b                         jne     0x11d8 <__do_global_dtors_aux+0x38>
    11ad: 55                            pushq   %rbp
    11ae: 48 83 3d 42 2e 00 00 00       cmpq    $0x0, 0x2e42(%rip)      # 0x3ff8 <_GLOBAL_OFFSET_TABLE_+0x68>
    11b6: 48 89 e5                      movq    %rsp, %rbp
    11b9: 74 0c                         je      0x11c7 <__do_global_dtors_aux+0x27>
    11bb: 48 8b 3d 46 2e 00 00          movq    0x2e46(%rip), %rdi      # 0x4008 <__dso_handle>
    11c2: e8 c9 fe ff ff                callq   0x1090 <.plt.got>
    11c7: e8 64 ff ff ff                callq   0x1130 <deregister_tm_clones>
    11cc: c6 05 45 2e 00 00 01          movb    $0x1, 0x2e45(%rip)      # 0x4018 <completed.0>
    11d3: 5d                            popq    %rbp
    11d4: c3                            retq
    11d5: 0f 1f 00                      nopl    (%rax)
    11d8: c3                            retq
    11d9: 0f 1f 80 00 00 00 00          nopl    (%rax)

00000000000011e0 <frame_dummy>:
    11e0: f3 0f 1e fa                   endbr64
    11e4: e9 77 ff ff ff                jmp     0x1160 <register_tm_clones>

00000000000011e9 <main>:
    11e9: f3 0f 1e fa                   endbr64
    11ed: 55                            pushq   %rbp
    11ee: 48 89 e5                      movq    %rsp, %rbp
    11f1: 48 83 ec 50                   subq    $0x50, %rsp
    11f5: 64 48 8b 04 25 28 00 00 00    movq    %fs:0x28, %rax
    11fe: 48 89 45 f8                   movq    %rax, -0x8(%rbp)
    1202: 31 c0                         xorl    %eax, %eax
    1204: 48 b8 46 6b 77 66 64 66 7c 6b movabsq $0x6b7c666466776b46, %rax # imm = 0x6B7C666466776B46
    120e: 48 89 45 c2                   movq    %rax, -0x3e(%rbp)
    1212: 48 b8 7c 6b 72 64 6c 7e 7a 00 movabsq $0x7a7e6c64726b7c, %rax # imm = 0x7A7E6C64726B7C
    121c: 48 89 45 c8                   movq    %rax, -0x38(%rbp)
    1220: 48 c7 45 b8 0d 00 00 00       movq    $0xd, -0x48(%rbp)
    1228: 48 8d 05 d5 0d 00 00          leaq    0xdd5(%rip), %rax       # 0x2004 <_IO_stdin_used+0x4>
    122f: 48 89 c7                      movq    %rax, %rdi
    1232: b8 00 00 00 00                movl    $0x0, %eax
    1237: e8 94 fe ff ff                callq   0x10d0 <.plt.sec+0x30>
    123c: 48 8b 05 cd 2d 00 00          movq    0x2dcd(%rip), %rax      # 0x4010 <stdout@GLIBC_2.2.5>
    1243: 48 89 c7                      movq    %rax, %rdi
    1246: e8 95 fe ff ff                callq   0x10e0 <.plt.sec+0x40>
    124b: 48 8d 45 d0                   leaq    -0x30(%rbp), %rax
    124f: 48 89 c6                      movq    %rax, %rsi
    1252: 48 8d 05 b8 0d 00 00          leaq    0xdb8(%rip), %rax       # 0x2011 <_IO_stdin_used+0x11>
    1259: 48 89 c7                      movq    %rax, %rdi
    125c: b8 00 00 00 00                movl    $0x0, %eax
    1261: e8 8a fe ff ff                callq   0x10f0 <.plt.sec+0x50>
    1266: 48 8d 45 d0                   leaq    -0x30(%rbp), %rax
    126a: 48 89 c7                      movq    %rax, %rdi
    126d: e8 3e fe ff ff                callq   0x10b0 <.plt.sec+0x10>
    1272: 48 39 45 b8                   cmpq    %rax, -0x48(%rbp)
    1276: 74 16                         je      0x128e <main+0xa5>
    1278: 48 8d 05 97 0d 00 00          leaq    0xd97(%rip), %rax       # 0x2016 <_IO_stdin_used+0x16>
    127f: 48 89 c7                      movq    %rax, %rdi
    1282: e8 19 fe ff ff                callq   0x10a0 <.plt.sec>
    1287: b8 01 00 00 00                movl    $0x1, %eax
    128c: eb 74                         jmp     0x1302 <main+0x119>
    128e: 48 c7 45 b0 00 00 00 00       movq    $0x0, -0x50(%rbp)
    1296: eb 4c                         jmp     0x12e4 <main+0xfb>
    1298: 48 8d 55 d0                   leaq    -0x30(%rbp), %rdx
    129c: 48 8b 45 b0                   movq    -0x50(%rbp), %rax
    12a0: 48 01 d0                      addq    %rdx, %rax
    12a3: 0f b6 00                      movzbl  (%rax), %eax
    12a6: 83 f0 07                      xorl    $0x7, %eax
    12a9: 89 c1                         movl    %eax, %ecx
    12ab: 48 8d 55 c2                   leaq    -0x3e(%rbp), %rdx
    12af: 48 8b 45 b0                   movq    -0x50(%rbp), %rax
    12b3: 48 01 d0                      addq    %rdx, %rax
    12b6: 0f b6 00                      movzbl  (%rax), %eax
    12b9: 38 c1                         cmpb    %al, %cl
    12bb: 74 22                         je      0x12df <main+0xf6>
    12bd: 48 8b 45 b0                   movq    -0x50(%rbp), %rax
    12c1: 48 89 c6                      movq    %rax, %rsi
    12c4: 48 8d 05 58 0d 00 00          leaq    0xd58(%rip), %rax       # 0x2023 <_IO_stdin_used+0x23>
    12cb: 48 89 c7                      movq    %rax, %rdi
    12ce: b8 00 00 00 00                movl    $0x0, %eax
    12d3: e8 f8 fd ff ff                callq   0x10d0 <.plt.sec+0x30>
    12d8: b8 01 00 00 00                movl    $0x1, %eax
    12dd: eb 23                         jmp     0x1302 <main+0x119>
    12df: 48 83 45 b0 01                addq    $0x1, -0x50(%rbp)
    12e4: 48 8b 45 b0                   movq    -0x50(%rbp), %rax
    12e8: 48 3b 45 b8                   cmpq    -0x48(%rbp), %rax
    12ec: 72 aa                         jb      0x1298 <main+0xaf>
    12ee: 48 8d 05 42 0d 00 00          leaq    0xd42(%rip), %rax       # 0x2037 <_IO_stdin_used+0x37>
    12f5: 48 89 c7                      movq    %rax, %rdi
    12f8: e8 a3 fd ff ff                callq   0x10a0 <.plt.sec>
    12fd: b8 00 00 00 00                movl    $0x0, %eax
    1302: 48 8b 55 f8                   movq    -0x8(%rbp), %rdx
    1306: 64 48 2b 14 25 28 00 00 00    subq    %fs:0x28, %rdx
    130f: 74 05                         je      0x1316 <main+0x12d>
    1311: e8 aa fd ff ff                callq   0x10c0 <.plt.sec+0x20>
    1316: c9                            leave
    1317: c3                            retq

Disassembly of section .fini:

0000000000001318 <_fini>:
    1318: f3 0f 1e fa                   endbr64
    131c: 48 83 ec 08                   subq    $0x8, %rsp
    1320: 48 83 c4 08                   addq    $0x8, %rsp
    1324: c3                            retq
